; ModuleID = '9/227.c'
source_filename = "9/227.c"
target datalayout = "e-m:e-p270:32:32-p271:32:32-p272:64:64-i64:64-f80:128-n8:16:32:64-S128"
target triple = "x86_64-pc-linux-gnu"

%struct.people = type { [10 x i8], i32, %struct.people* }

@.str = private unnamed_addr constant [3 x i8] c"%d\00", align 1
@.str.1 = private unnamed_addr constant [6 x i8] c"%s %d\00", align 1
@.str.2 = private unnamed_addr constant [4 x i8] c"%s\0A\00", align 1

; Function Attrs: noinline nounwind uwtable
define dso_local void @main() #0 {
  %1 = alloca %struct.people*, align 8
  %2 = alloca %struct.people*, align 8
  %3 = alloca %struct.people*, align 8
  %4 = alloca %struct.people*, align 8
  %5 = alloca i32, align 4
  %6 = alloca i32, align 4
  %7 = call noalias i8* @malloc(i64 24) #3
  %8 = bitcast i8* %7 to %struct.people*
  store %struct.people* %8, %struct.people** %1, align 8
  %9 = load %struct.people*, %struct.people** %1, align 8
  %10 = getelementptr inbounds %struct.people, %struct.people* %9, i32 0, i32 2
  store %struct.people* null, %struct.people** %10, align 8
  %11 = call i32 (i8*, ...) @__isoc99_scanf(i8* getelementptr inbounds ([3 x i8], [3 x i8]* @.str, i64 0, i64 0), i32* %5)
  store i32 0, i32* %6, align 4
  br label %12

12:                                               ; preds = %68, %0
  %13 = load i32, i32* %6, align 4
  %14 = load i32, i32* %5, align 4
  %15 = icmp slt i32 %13, %14
  br i1 %15, label %16, label %71

16:                                               ; preds = %12
  %17 = load %struct.people*, %struct.people** %1, align 8
  store %struct.people* %17, %struct.people** %2, align 8
  %18 = load %struct.people*, %struct.people** %2, align 8
  %19 = getelementptr inbounds %struct.people, %struct.people* %18, i32 0, i32 2
  %20 = load %struct.people*, %struct.people** %19, align 8
  store %struct.people* %20, %struct.people** %3, align 8
  %21 = call noalias i8* @malloc(i64 24) #3
  %22 = bitcast i8* %21 to %struct.people*
  store %struct.people* %22, %struct.people** %4, align 8
  %23 = load %struct.people*, %struct.people** %4, align 8
  %24 = getelementptr inbounds %struct.people, %struct.people* %23, i32 0, i32 2
  store %struct.people* null, %struct.people** %24, align 8
  %25 = load %struct.people*, %struct.people** %4, align 8
  %26 = getelementptr inbounds %struct.people, %struct.people* %25, i32 0, i32 0
  %27 = getelementptr inbounds [10 x i8], [10 x i8]* %26, i64 0, i64 0
  %28 = load %struct.people*, %struct.people** %4, align 8
  %29 = getelementptr inbounds %struct.people, %struct.people* %28, i32 0, i32 1
  %30 = call i32 (i8*, ...) @__isoc99_scanf(i8* getelementptr inbounds ([6 x i8], [6 x i8]* @.str.1, i64 0, i64 0), i8* %27, i32* %29)
  br label %31

31:                                               ; preds = %56, %16
  %32 = load %struct.people*, %struct.people** %3, align 8
  %33 = icmp ne %struct.people* %32, null
  br i1 %33, label %34, label %54

34:                                               ; preds = %31
  %35 = load %struct.people*, %struct.people** %4, align 8
  %36 = getelementptr inbounds %struct.people, %struct.people* %35, i32 0, i32 1
  %37 = load i32, i32* %36, align 4
  %38 = icmp sge i32 %37, 60
  br i1 %38, label %39, label %47

39:                                               ; preds = %34
  %40 = load %struct.people*, %struct.people** %4, align 8
  %41 = getelementptr inbounds %struct.people, %struct.people* %40, i32 0, i32 1
  %42 = load i32, i32* %41, align 4
  %43 = load %struct.people*, %struct.people** %3, align 8
  %44 = getelementptr inbounds %struct.people, %struct.people* %43, i32 0, i32 1
  %45 = load i32, i32* %44, align 4
  %46 = icmp sle i32 %42, %45
  br i1 %46, label %52, label %47

47:                                               ; preds = %39, %34
  %48 = load %struct.people*, %struct.people** %4, align 8
  %49 = getelementptr inbounds %struct.people, %struct.people* %48, i32 0, i32 1
  %50 = load i32, i32* %49, align 4
  %51 = icmp slt i32 %50, 60
  br label %52

52:                                               ; preds = %47, %39
  %53 = phi i1 [ true, %39 ], [ %51, %47 ]
  br label %54

54:                                               ; preds = %52, %31
  %55 = phi i1 [ false, %31 ], [ %53, %52 ]
  br i1 %55, label %56, label %61

56:                                               ; preds = %54
  %57 = load %struct.people*, %struct.people** %3, align 8
  store %struct.people* %57, %struct.people** %2, align 8
  %58 = load %struct.people*, %struct.people** %3, align 8
  %59 = getelementptr inbounds %struct.people, %struct.people* %58, i32 0, i32 2
  %60 = load %struct.people*, %struct.people** %59, align 8
  store %struct.people* %60, %struct.people** %3, align 8
  br label %31

61:                                               ; preds = %54
  %62 = load %struct.people*, %struct.people** %4, align 8
  %63 = load %struct.people*, %struct.people** %2, align 8
  %64 = getelementptr inbounds %struct.people, %struct.people* %63, i32 0, i32 2
  store %struct.people* %62, %struct.people** %64, align 8
  %65 = load %struct.people*, %struct.people** %3, align 8
  %66 = load %struct.people*, %struct.people** %4, align 8
  %67 = getelementptr inbounds %struct.people, %struct.people* %66, i32 0, i32 2
  store %struct.people* %65, %struct.people** %67, align 8
  br label %68

68:                                               ; preds = %61
  %69 = load i32, i32* %6, align 4
  %70 = add nsw i32 %69, 1
  store i32 %70, i32* %6, align 4
  br label %12

71:                                               ; preds = %12
  %72 = load %struct.people*, %struct.people** %1, align 8
  %73 = getelementptr inbounds %struct.people, %struct.people* %72, i32 0, i32 2
  %74 = load %struct.people*, %struct.people** %73, align 8
  store %struct.people* %74, %struct.people** %3, align 8
  br label %75

75:                                               ; preds = %78, %71
  %76 = load %struct.people*, %struct.people** %3, align 8
  %77 = icmp ne %struct.people* %76, null
  br i1 %77, label %78, label %86

78:                                               ; preds = %75
  %79 = load %struct.people*, %struct.people** %3, align 8
  %80 = getelementptr inbounds %struct.people, %struct.people* %79, i32 0, i32 0
  %81 = getelementptr inbounds [10 x i8], [10 x i8]* %80, i64 0, i64 0
  %82 = call i32 (i8*, ...) @printf(i8* getelementptr inbounds ([4 x i8], [4 x i8]* @.str.2, i64 0, i64 0), i8* %81)
  %83 = load %struct.people*, %struct.people** %3, align 8
  %84 = getelementptr inbounds %struct.people, %struct.people* %83, i32 0, i32 2
  %85 = load %struct.people*, %struct.people** %84, align 8
  store %struct.people* %85, %struct.people** %3, align 8
  br label %75

86:                                               ; preds = %75
  ret void
}

; Function Attrs: nounwind
declare dso_local noalias i8* @malloc(i64) #1

declare dso_local i32 @__isoc99_scanf(i8*, ...) #2

declare dso_local i32 @printf(i8*, ...) #2


!llvm.module.flags = !{!0}
!llvm.ident = !{!1}

!0 = !{i32 1, !"wchar_size", i32 4}
!1 = !{!"clang version 10.0.0-4ubuntu1 "}
